target datalayout = "e-m:e-p270:32:32-p271:32:32-p272:64:64-i64:64-i128:128-f80:128-n8:16:32:64-S128"
target triple = "x86_64-pc-linux-gnu"

%struct.xl_xact_prepare = type { i32, i32, i32, i32, i64, i32, i32, i32, i32, i32, i32, i32, i8, i16, i64, i64 }

@max_prepared_xacts = dso_local global i32 0, align 4

; Function Attrs: nounwind uwtable
define dso_local zeroext i1 @StandbyTransactionIdIsPrepared(i32 noundef %0) #0 {
  %2 = alloca i1, align 1
  %3 = alloca i32, align 4
  %4 = alloca ptr, align 8
  %5 = alloca ptr, align 8
  %6 = alloca i8, align 1
  %7 = alloca i32, align 4
  store i32 %0, ptr %3, align 4
  call void @llvm.lifetime.start.p0(i64 8, ptr %4) #12
  call void @llvm.lifetime.start.p0(i64 8, ptr %5) #12
  call void @llvm.lifetime.start.p0(i64 1, ptr %6) #12
  %8 = load i32, ptr @max_prepared_xacts, align 4
  %9 = icmp sle i32 %8, 0
  br i1 %9, label %10, label %11

10:                                               ; preds = %1
  store i1 false, ptr %2, align 1
  store i32 1, ptr %7, align 4
  br label %28

11:                                               ; preds = %1
  %12 = load i32, ptr %3, align 4
  %13 = call ptr @ReadTwoPhaseFile(i32 noundef %12, i1 noundef zeroext true)
  store ptr %13, ptr %4, align 8
  %14 = load ptr, ptr %4, align 8
  %15 = icmp eq ptr %14, null
  br i1 %15, label %16, label %17

16:                                               ; preds = %11
  store i1 false, ptr %2, align 1
  store i32 1, ptr %7, align 4
  br label %28

17:                                               ; preds = %11
  %18 = load ptr, ptr %4, align 8
  store ptr %18, ptr %5, align 8
  %19 = load ptr, ptr %5, align 8
  %20 = getelementptr inbounds nuw %struct.xl_xact_prepare, ptr %19, i32 0, i32 2
  %21 = load i32, ptr %20, align 8
  %22 = load i32, ptr %3, align 4
  %23 = icmp eq i32 %21, %22
  %24 = zext i1 %23 to i8
  store i8 %24, ptr %6, align 1
  %25 = load ptr, ptr %4, align 8
  call void @pfree(ptr noundef %25)
  %26 = load i8, ptr %6, align 1, !range !4, !noundef !5
  %27 = trunc i8 %26 to i1
  store i1 %27, ptr %2, align 1
  store i32 1, ptr %7, align 4
  br label %28

28:                                               ; preds = %17, %16, %10
  call void @llvm.lifetime.end.p0(i64 1, ptr %6) #12
  call void @llvm.lifetime.end.p0(i64 8, ptr %5) #12
  call void @llvm.lifetime.end.p0(i64 8, ptr %4) #12
  %29 = load i1, ptr %2, align 1
  ret i1 %29
}