; Function Attrs: nounwind uwtable
define dso_local zeroext i1 @StandbyTransactionIdIsPrepared(i32 noundef %0) local_unnamed_addr #0 {
  %2 = load i32, ptr @max_prepared_xacts, align 4
  %3 = icmp slt i32 %2, 1
  br i1 %3, label %11, label %4

4:                                                ; preds = %1
  %5 = tail call fastcc ptr @ReadTwoPhaseFile(i32 noundef %0, i1 noundef zeroext true)
  %6 = icmp eq ptr %5, null
  br i1 %6, label %11, label %7

7:                                                ; preds = %4
  %8 = getelementptr inbounds nuw i8, ptr %5, i64 8
  %9 = load i32, ptr %8, align 8
  %10 = icmp eq i32 %9, %0
  tail call void @pfree(ptr noundef nonnull %5) #14
  br label %11

11:                                               ; preds = %4, %1, %7
  %.0 = phi i1 [ %10, %7 ], [ false, %1 ], [ false, %4 ]
  ret i1 %.0
}